; Function Attrs: mustprogress uwtable
define hidden void @_ZN19OpenColorIO_v2_4dev14closeLutStreamERKNS_6ConfigERKSi(ptr noundef nonnull align 8 dereferenceable(8) %config, ptr noundef nonnull align 8 dereferenceable(16) %istream) local_unnamed_addr #3 personality ptr @__gxx_personality_v0 {
entry:
  %ref.tmp = alloca %"class.std::shared_ptr.22", align 8
  call void @_ZNK19OpenColorIO_v2_4dev6Config16getConfigIOProxyEv(ptr nonnull sret(%"class.std::shared_ptr.22") align 8 %ref.tmp, ptr noundef nonnull align 8 dereferenceable(8) %config)
  %0 = load ptr, ptr %ref.tmp, align 8
  %cmp.i.not.i = icmp eq ptr %0, null
  %_M_refcount.i.i = getelementptr inbounds i8, ptr %ref.tmp, i64 8
  %1 = load ptr, ptr %_M_refcount.i.i, align 8
  %cmp.not.i.i.i = icmp eq ptr %1, null
  br i1 %cmp.not.i.i.i, label %_ZNSt10shared_ptrIN19OpenColorIO_v2_4dev13ConfigIOProxyEED2Ev.exit, label %if.then.i.i.i

if.then.i.i.i:                                    ; preds = %entry
  %_M_use_count.i.i.i.i = getelementptr inbounds i8, ptr %1, i64 8
  %2 = load atomic i64, ptr %_M_use_count.i.i.i.i acquire, align 8
  %cmp.i.i.i.i = icmp eq i64 %2, 4294967297
  %3 = trunc i64 %2 to i32
  br i1 %cmp.i.i.i.i, label %if.then.i.i.i.i, label %if.end.i.i.i.i

if.then.i.i.i.i:                                  ; preds = %if.then.i.i.i
  store i32 0, ptr %_M_use_count.i.i.i.i, align 8
  %_M_weak_count.i.i.i.i = getelementptr inbounds i8, ptr %1, i64 12
  store i32 0, ptr %_M_weak_count.i.i.i.i, align 4
  %vtable.i.i.i.i = load ptr, ptr %1, align 8
  %vfn.i.i.i.i = getelementptr inbounds i8, ptr %vtable.i.i.i.i, i64 16
  %4 = load ptr, ptr %vfn.i.i.i.i, align 8
  call void %4(ptr noundef nonnull align 8 dereferenceable(16) %1) #28
  br label %if.end8.sink.split.i.i.i.i

if.end.i.i.i.i:                                   ; preds = %if.then.i.i.i
  %5 = load i8, ptr @__libc_single_threaded, align 1
  %tobool.i.not.i.i.i.i = icmp eq i8 %5, 0
  br i1 %tobool.i.not.i.i.i.i, label %if.else.i.i.i.i.i, label %if.then.i.i.i.i.i

if.then.i.i.i.i.i:                                ; preds = %if.end.i.i.i.i
  %add.i.i.i.i.i = add nsw i32 %3, -1
  store i32 %add.i.i.i.i.i, ptr %_M_use_count.i.i.i.i, align 4
  br label %_ZN9__gnu_cxx27__exchange_and_add_dispatchEPii.exit.i.i.i.i

if.else.i.i.i.i.i:                                ; preds = %if.end.i.i.i.i
  %6 = atomicrmw volatile add ptr %_M_use_count.i.i.i.i, i32 -1 acq_rel, align 4
  br label %_ZN9__gnu_cxx27__exchange_and_add_dispatchEPii.exit.i.i.i.i

_ZN9__gnu_cxx27__exchange_and_add_dispatchEPii.exit.i.i.i.i: ; preds = %if.else.i.i.i.i.i, %if.then.i.i.i.i.i
  %retval.i.0.i.i.i.i = phi i32 [ %3, %if.then.i.i.i.i.i ], [ %6, %if.else.i.i.i.i.i ]
  %cmp6.i.i.i.i = icmp eq i32 %retval.i.0.i.i.i.i, 1
  br i1 %cmp6.i.i.i.i, label %if.then7.i.i.i.i, label %_ZNSt10shared_ptrIN19OpenColorIO_v2_4dev13ConfigIOProxyEED2Ev.exit

if.then7.i.i.i.i:                                 ; preds = %_ZN9__gnu_cxx27__exchange_and_add_dispatchEPii.exit.i.i.i.i
  %vtable.i.i.i.i.i.i = load ptr, ptr %1, align 8
  %vfn.i.i.i.i.i.i = getelementptr inbounds i8, ptr %vtable.i.i.i.i.i.i, i64 16
  %7 = load ptr, ptr %vfn.i.i.i.i.i.i, align 8
  call void %7(ptr noundef nonnull align 8 dereferenceable(16) %1) #28
  %_M_weak_count.i.i.i.i.i.i = getelementptr inbounds i8, ptr %1, i64 12
  %8 = load i8, ptr @__libc_single_threaded, align 1
  %tobool.i.not.i.i.i.i.i.i = icmp eq i8 %8, 0
  br i1 %tobool.i.not.i.i.i.i.i.i, label %if.else.i.i.i.i.i.i.i, label %if.then.i.i.i.i.i.i.i

if.then.i.i.i.i.i.i.i:                            ; preds = %if.then7.i.i.i.i
  %9 = load i32, ptr %_M_weak_count.i.i.i.i.i.i, align 4
  %add.i.i.i.i.i.i.i = add nsw i32 %9, -1
  store i32 %add.i.i.i.i.i.i.i, ptr %_M_weak_count.i.i.i.i.i.i, align 4
  br label %_ZN9__gnu_cxx27__exchange_and_add_dispatchEPii.exit.i.i.i.i.i.i

if.else.i.i.i.i.i.i.i:                            ; preds = %if.then7.i.i.i.i
  %10 = atomicrmw volatile add ptr %_M_weak_count.i.i.i.i.i.i, i32 -1 acq_rel, align 4
  br label %_ZN9__gnu_cxx27__exchange_and_add_dispatchEPii.exit.i.i.i.i.i.i

_ZN9__gnu_cxx27__exchange_and_add_dispatchEPii.exit.i.i.i.i.i.i: ; preds = %if.else.i.i.i.i.i.i.i, %if.then.i.i.i.i.i.i.i
  %retval.i.0.i.i.i.i.i.i = phi i32 [ %9, %if.then.i.i.i.i.i.i.i ], [ %10, %if.else.i.i.i.i.i.i.i ]
  %cmp.i.i.i.i.i.i = icmp eq i32 %retval.i.0.i.i.i.i.i.i, 1
  br i1 %cmp.i.i.i.i.i.i, label %if.end8.sink.split.i.i.i.i, label %_ZNSt10shared_ptrIN19OpenColorIO_v2_4dev13ConfigIOProxyEED2Ev.exit

if.end8.sink.split.i.i.i.i:                       ; preds = %_ZN9__gnu_cxx27__exchange_and_add_dispatchEPii.exit.i.i.i.i.i.i, %if.then.i.i.i.i
  %vtable2.i.i.i.i.i.i = load ptr, ptr %1, align 8
  %vfn3.i.i.i.i.i.i = getelementptr inbounds i8, ptr %vtable2.i.i.i.i.i.i, i64 24
  %11 = load ptr, ptr %vfn3.i.i.i.i.i.i, align 8
  call void %11(ptr noundef nonnull align 8 dereferenceable(16) %1) #28
  br label %_ZNSt10shared_ptrIN19OpenColorIO_v2_4dev13ConfigIOProxyEED2Ev.exit

_ZNSt10shared_ptrIN19OpenColorIO_v2_4dev13ConfigIOProxyEED2Ev.exit: ; preds = %entry, %_ZN9__gnu_cxx27__exchange_and_add_dispatchEPii.exit.i.i.i.i, %_ZN9__gnu_cxx27__exchange_and_add_dispatchEPii.exit.i.i.i.i.i.i, %if.end8.sink.split.i.i.i.i
  br i1 %cmp.i.not.i, label %if.then, label %if.end3

if.then:                                          ; preds = %_ZNSt10shared_ptrIN19OpenColorIO_v2_4dev13ConfigIOProxyEED2Ev.exit
  %call1 = call noundef zeroext i1 @_ZNSt14basic_ifstreamIcSt11char_traitsIcEE7is_openEv(ptr noundef nonnull align 8 dereferenceable(256) %istream)
  br i1 %call1, label %if.then2, label %if.end3

if.then2:                                         ; preds = %if.then
  call void @_ZNSt14basic_ifstreamIcSt11char_traitsIcEE5closeEv(ptr noundef nonnull align 8 dereferenceable(256) %istream)
  br label %if.end3

if.end3:                                          ; preds = %if.then, %if.then2, %_ZNSt10shared_ptrIN19OpenColorIO_v2_4dev13ConfigIOProxyEED2Ev.exit
  ret void
}